; Function Attrs: mustprogress nofree norecurse nosync nounwind willreturn memory(argmem: readwrite) uwtable
define internal void @RunLengthDecode_cb(ptr noundef %0, ptr nocapture readnone %1, ptr nocapture readnone %2) #17 {
  %4 = icmp eq ptr %0, null
  br i1 %4, label %9, label %5

5:                                                ; preds = %3
  %6 = getelementptr inbounds i8, ptr %0, i64 180
  %7 = load i32, ptr %6, align 4
  %8 = add nsw i32 %7, 1
  store i32 %8, ptr %6, align 4
  br label %9

9:                                                ; preds = %3, %5
  ret void
}